; Function Attrs: mustprogress nofree norecurse nosync nounwind willreturn memory(argmem: write) uwtable
define internal void @rcon(ptr noundef writeonly captures(none) initializes((272, 280), (284, 300), (304, 313), (320, 336)) %0) #1 {
  %2 = getelementptr inbounds nuw i8, ptr %0, i64 272
  store ptr null, ptr %2, align 8, !tbaa !116
  %3 = getelementptr inbounds nuw i8, ptr %0, i64 284
  tail call void @llvm.memset.p0.i64(ptr noundef nonnull align 4 dereferenceable(16) %3, i8 0, i64 16, i1 false)
  %4 = getelementptr inbounds nuw i8, ptr %0, i64 288
  store i32 -1, ptr %4, align 4, !tbaa !118
  %5 = getelementptr inbounds nuw i8, ptr %0, i64 304
  store ptr null, ptr %5, align 8, !tbaa !119
  %6 = getelementptr inbounds nuw i8, ptr %0, i64 312
  store i8 0, ptr %6, align 8, !tbaa !120
  %7 = getelementptr inbounds nuw i8, ptr %0, i64 320
  tail call void @llvm.memset.p0.i64(ptr noundef nonnull align 8 dereferenceable(16) %7, i8 0, i64 16, i1 false)
  ret void
}